; Function Attrs: mustprogress uwtable
define void @_ZN5osgeo4proj9operation10Conversion19createVanDerGrintenERKNS0_4util11PropertyMapERKNS0_6common5AngleERKNS7_6LengthESD_(ptr dead_on_unwind noalias writable sret(%"class.dropbox::oxygen::nn.42") align 8 %0, ptr noundef nonnull align 8 dereferenceable(8) %1, ptr noundef nonnull align 8 dereferenceable(24) %2, ptr noundef nonnull align 8 dereferenceable(24) %3, ptr noundef nonnull align 8 dereferenceable(24) %4) local_unnamed_addr #0 align 2 personality ptr @__gxx_personality_v0 {
  %6 = alloca %"struct.osgeo::proj::operation::VectorOfValues", align 8
  call void @llvm.lifetime.start.p0(i64 24, ptr nonnull %6) #32
  call void @_ZN5osgeo4proj9operation12createParamsERKNS0_6common7MeasureES5_S5_(ptr dead_on_unwind nonnull writable sret(%"struct.osgeo::proj::operation::VectorOfValues") align 8 %6, ptr noundef nonnull align 8 dereferenceable(24) %2, ptr noundef nonnull align 8 dereferenceable(24) %3, ptr noundef nonnull align 8 dereferenceable(24) %4)
  %7 = call noundef ptr @_ZN5osgeo4proj9operation10getMappingEPKc(ptr noundef nonnull @.str.24) #32, !noalias !277
  invoke fastcc void @_ZN5osgeo4proj9operationL16createConversionERKNS0_4util11PropertyMapEPKNS1_13MethodMappingERKSt6vectorIN7dropbox6oxygen2nnISt10shared_ptrINS1_14ParameterValueEEEESaISG_EE(ptr dead_on_unwind noalias writable align 8 %0, ptr noundef nonnull align 8 dereferenceable(8) %1, ptr noundef %7, ptr noundef nonnull readonly align 8 dereferenceable(24) %6)
          to label %_ZN5osgeo4proj9operation10Conversion6createERKNS0_4util11PropertyMapEPKcRKSt6vectorIN7dropbox6oxygen2nnISt10shared_ptrINS1_14ParameterValueEEEESaISG_EE.exit unwind label %8

_ZN5osgeo4proj9operation10Conversion6createERKNS0_4util11PropertyMapEPKcRKSt6vectorIN7dropbox6oxygen2nnISt10shared_ptrINS1_14ParameterValueEEEESaISG_EE.exit: ; preds = %5
  call void @_ZN5osgeo4proj9operation14VectorOfValuesD1Ev(ptr noundef nonnull align 8 dereferenceable(24) %6) #32
  call void @llvm.lifetime.end.p0(i64 24, ptr nonnull %6) #32
  ret void

8:                                                ; preds = %5
  %9 = landingpad { ptr, i32 }
          cleanup
  call void @_ZN5osgeo4proj9operation14VectorOfValuesD1Ev(ptr noundef nonnull align 8 dereferenceable(24) %6) #32
  call void @llvm.lifetime.end.p0(i64 24, ptr nonnull %6) #32
  resume { ptr, i32 } %9
}